(dp1
S'modu_web'
p2
ccopy_reg
_reconstructor
p3
(ctwisted.plugin
CachedDropin
p4
c__builtin__
object
p5
NtRp6
(dp7
S'moduleName'
p8
S'twisted.plugins.modu_web'
p9
sS'description'
p10
S'\nTwisted plugin to launch a modu web application container.\n'
p11
sS'plugins'
p12
(lp13
g3
(ctwisted.plugin
CachedPlugin
p14
g5
NtRp15
(dp16
S'provided'
p17
(lp18
ctwisted.application.service
IServiceMaker
p19
actwisted.plugin
IPlugin
p20
asS'dropin'
p21
g6
sS'name'
p22
S'serviceMaker'
p23
sg10
S'\n\tCreate a modu web service with twisted.web.\n\t'
p24
sbasbs.