(lp0
(S'MILANO CENTRALE'
p1
S'19:05'
p2
S'19:07'
p3
I2
S'eff'
p4
tp5
a(S'MILANO ROGOREDO'
p6
S'19:16'
p7
S'19:15'
p8
I-1
g4
tp9
a(S'PAVIA'
p10
S'19:33'
p11
S'19:32'
p12
I-1
g4
tp13
a(S'VOGHERA'
p14
S'19:49'
p15
S'19:52'
p16
I3
g4
tp17
a(S'GENOVA PIAZZA PRINCIPE'
p18
S'20:42'
p19
S'20:59'
p20
I17
g4
tp21
a(S'GENOVA BRIGNOLE'
p22
S'20:51'
p23
S'21:09'
p24
I18
g4
tp25
a.