(lp0
(S'MILANO CENTRALE'
p1
S'19:05'
p2
S'19:44'
p3
I39
S'eff'
p4
tp5
a(S'MILANO ROGOREDO'
p6
S'19:16'
p7
S'19:53'
p8
I37
g4
tp9
a(S'PAVIA'
p10
S'19:33'
p11
S'20:30'
p12
I57
g4
tp13
a(S'VOGHERA'
p14
S'19:49'
p15
S'20:46'
p16
I57
g4
tp17
a(S'GENOVA PIAZZA PRINCIPE'
p18
S'20:42'
p19
S'21:39'
p20
I57
g4
tp21
a(S'GENOVA BRIGNOLE'
p22
S'20:51'
p23
S'21:48'
p24
I57
g4
tp25
a.