(lp0
(S'MILANO CENTRALE'
p1
S'19:05'
p2
S'19:14'
p3
I9
S'eff'
p4
tp5
a(S'MILANO ROGOREDO'
p6
S'19:16'
p7
S'19:23'
p8
I7
g4
tp9
a(S'PAVIA'
p10
S'19:33'
p11
S'19:41'
p12
I8
g4
tp13
a(S'VOGHERA'
p14
S'19:49'
p15
S'19:59'
p16
I10
g4
tp17
a(S'GENOVA PIAZZA PRINCIPE'
p18
S'20:42'
p19
S'20:50'
p20
I8
g4
tp21
a(S'GENOVA BRIGNOLE'
p22
S'20:51'
p23
S'20:59'
p24
I8
g4
tp25
a.