(dp1
VP[2]
p2
(dp3
S'pars'
p4
V0.008 0.0012
p5
sS'dist'
p6
Vuniform
p7
ssVP[1]
p8
(dp9
g4
V0.08 0.012
p10
sg6
Vuniform
p11
ssVP[0]
p12
(dp13
g4
V0.0008 0.00012
p14
sg6
Vuniform
p15
ssS'samples'
p16
I201
s.