Certificate:
    Data:
        Version: 1 (0x0)
        Serial Number: 1 (0x1)
        Signature Algorithm: md5WithRSAEncryption
        Issuer: O=GACG, L=Virtual, ST=TestCert, C=DE, CN=TestCA
        Validity
            Not Before: Nov 29 14:26:33 2006 GMT
            Not After : Nov 26 14:26:33 2016 GMT
        Subject: C=DE, ST=TestCert, O=GACG, CN=Valid
        Subject Public Key Info:
            Public Key Algorithm: rsaEncryption
            RSA Public Key: (1024 bit)
                Modulus (1024 bit):
                    00:aa:28:a5:dd:e2:96:7a:79:5a:fe:2e:b8:c5:17:
                    8e:58:74:d6:54:f2:b0:d6:76:e1:60:cb:46:08:6b:
                    98:21:fa:29:b9:89:49:bb:dc:75:5e:c5:f2:9a:89:
                    af:bd:f2:b6:37:51:60:d5:61:85:69:fc:b2:1b:a7:
                    27:b9:0f:25:8c:fd:ab:2f:13:fc:91:66:9b:ae:28:
                    35:49:21:7c:d4:cb:d0:67:22:a5:1b:76:29:c2:ed:
                    be:7a:6c:3e:83:c7:70:2e:16:bd:43:8b:61:b5:fe:
                    40:d2:3d:8d:ee:f8:34:c5:df:71:53:85:2a:9d:29:
                    73:27:d4:15:58:24:1d:54:49
                Exponent: 65537 (0x10001)
    Signature Algorithm: md5WithRSAEncryption
        3a:22:7c:01:2d:86:b4:b3:a4:84:37:67:59:31:61:39:da:44:
        1b:e0:e0:8f:8f:3b:d8:88:b7:93:1c:c3:9c:06:1a:75:73:cc:
        68:3c:a4:af:d2:3c:c9:29:35:2d:c0:ac:97:8f:5a:c1:37:fd:
        e1:a3:f8:a7:8f:71:c4:98:12:6f:63:85:d9:73:cb:b1:76:71:
        44:59:07:f7:fe:1b:c6:70:bc:02:b5:85:33:9c:a2:e2:05:4b:
        c1:fb:c0:d2:65:08:60:81:6f:83:3a:38:fc:89:cc:f0:65:91:
        16:ff:97:a9:c6:4c:f3:49:22:b5:c3:31:de:74:ce:c9:b6:55:
        18:38
-----BEGIN CERTIFICATE-----
MIICADCCAWkCAQEwDQYJKoZIhvcNAQEEBQAwUjENMAsGA1UEChMER0FDRzEQMA4G
A1UEBxMHVmlydHVhbDERMA8GA1UECBMIVGVzdENlcnQxCzAJBgNVBAYTAkRFMQ8w
DQYDVQQDEwZUZXN0Q0EwHhcNMDYxMTI5MTQyNjMzWhcNMTYxMTI2MTQyNjMzWjA/
MQswCQYDVQQGEwJERTERMA8GA1UECBMIVGVzdENlcnQxDTALBgNVBAoTBEdBQ0cx
DjAMBgNVBAMTBVZhbGlkMIGfMA0GCSqGSIb3DQEBAQUAA4GNADCBiQKBgQCqKKXd
4pZ6eVr+LrjFF45YdNZU8rDWduFgy0YIa5gh+im5iUm73HVexfKaia+98rY3UWDV
YYVp/LIbpye5DyWM/asvE/yRZpuuKDVJIXzUy9BnIqUbdinC7b56bD6Dx3AuFr1D
i2G1/kDSPY3u+DTF33FThSqdKXMn1BVYJB1USQIDAQABMA0GCSqGSIb3DQEBBAUA
A4GBADoifAEthrSzpIQ3Z1kxYTnaRBvg4I+PO9iIt5Mcw5wGGnVzzGg8pK/SPMkp
NS3ArJePWsE3/eGj+KePccSYEm9jhdlzy7F2cURZB/f+G8ZwvAK1hTOcouIFS8H7
wNJlCGCBb4M6OPyJzPBlkRb/l6nGTPNJIrXDMd50zsm2VRg4
-----END CERTIFICATE-----
