Certificate:
    Data:
        Version: 1 (0x0)
        Serial Number: 2 (0x2)
        Signature Algorithm: md5WithRSAEncryption
        Issuer: O=GACG, L=Virtual, ST=TestCert, C=DE, CN=TestCA
        Validity
            Not Before: Nov 29 14:28:49 2006 GMT
            Not After : Nov 26 14:28:49 2016 GMT
        Subject: C=DE, ST=TestCert, O=GACG, CN=Invalid
        Subject Public Key Info:
            Public Key Algorithm: rsaEncryption
            RSA Public Key: (1024 bit)
                Modulus (1024 bit):
                    00:c8:c4:13:24:7a:c4:4f:b4:e3:18:a8:39:8a:bd:
                    4f:5d:c6:f7:58:e9:fd:08:28:a7:bf:1e:91:b1:09:
                    ef:e9:4f:08:6f:23:24:09:93:1d:a2:21:5f:cd:db:
                    eb:11:31:0b:b8:37:75:6f:dd:2f:03:dc:8e:3a:eb:
                    de:a2:6d:6a:d7:d7:be:08:84:71:b8:5c:f1:dd:f0:
                    2b:11:6a:c1:fe:3e:33:9e:83:63:c8:65:bf:69:e2:
                    85:6e:93:e0:f0:38:cb:cd:48:1e:5d:72:d0:f4:27:
                    b5:4b:12:71:de:d0:b0:b2:34:85:37:53:77:4e:df:
                    ce:eb:33:be:97:42:ed:15:8b
                Exponent: 65537 (0x10001)
    Signature Algorithm: md5WithRSAEncryption
        2f:1e:c1:e3:e7:a5:4e:95:3b:34:0c:1f:85:7d:92:d4:56:88:
        3c:96:2b:eb:84:66:43:35:5c:77:ce:48:4e:63:4f:36:b0:17:
        4d:f0:74:c6:e6:e5:d6:b5:d9:da:5a:5b:01:50:50:62:5e:7e:
        66:0c:c1:8a:5a:06:dc:c9:d9:ad:a5:c8:f1:53:6e:9b:77:ca:
        50:c4:34:11:aa:57:73:fc:5f:cd:07:97:70:9a:59:07:0d:5d:
        5c:16:db:d0:8c:bf:20:e1:72:77:63:da:dc:42:43:00:4d:ad:
        c2:77:f4:cd:7e:59:e0:8b:0c:90:8c:d7:3e:e9:5f:af:f5:12:
        97:ea
-----BEGIN CERTIFICATE-----
MIICAjCCAWsCAQIwDQYJKoZIhvcNAQEEBQAwUjENMAsGA1UEChMER0FDRzEQMA4G
A1UEBxMHVmlydHVhbDERMA8GA1UECBMIVGVzdENlcnQxCzAJBgNVBAYTAkRFMQ8w
DQYDVQQDEwZUZXN0Q0EwHhcNMDYxMTI5MTQyODQ5WhcNMTYxMTI2MTQyODQ5WjBB
MQswCQYDVQQGEwJERTERMA8GA1UECBMIVGVzdENlcnQxDTALBgNVBAoTBEdBQ0cx
EDAOBgNVBAMTB0ludmFsaWQwgZ8wDQYJKoZIhvcNAQEBBQADgY0AMIGJAoGBAMjE
EyR6xE+04xioOYq9T13G91jp/Qgop78ekbEJ7+lPCG8jJAmTHaIhX83b6xExC7g3
dW/dLwPcjjrr3qJtatfXvgiEcbhc8d3wKxFqwf4+M56DY8hlv2nihW6T4PA4y81I
Hl1y0PQntUsScd7QsLI0hTdTd07fzuszvpdC7RWLAgMBAAEwDQYJKoZIhvcNAQEE
BQADgYEALx7B4+elTpU7NAwfhX2S1FaIPJYr64RmQzVcd85ITmNPNrAXTfB0xubl
1rXZ2lpbAVBQYl5+ZgzBiloG3MnZraXI8VNum3fKUMQ0EapXc/xfzQeXcJpZBw1d
XBbb0Iy/IOFyd2Pa3EJDAE2twnf0zX5Z4IsMkIzXPulfr/USl+o=
-----END CERTIFICATE-----
