Certificate:
    Data:
        Version: 1 (0x0)
        Serial Number: 4 (0x4)
        Signature Algorithm: md5WithRSAEncryption
        Issuer: O=GACG, L=Virtual, ST=TestCert, C=DE, CN=TestCA
        Validity
            Not Before: Nov 29 14:34:05 2006 GMT
            Not After : Nov 26 14:34:05 2016 GMT
        Subject: C=DE, ST=TestCert, O=GACG, CN=TestServer
        Subject Public Key Info:
            Public Key Algorithm: rsaEncryption
            RSA Public Key: (1024 bit)
                Modulus (1024 bit):
                    00:b1:93:f8:04:2a:d2:0d:ca:8c:6b:b7:db:5a:fc:
                    f2:8c:25:0e:86:f5:4d:df:d1:63:8d:aa:7b:3c:22:
                    11:3c:c1:d0:dc:70:b0:24:7b:ad:e9:f6:83:a4:34:
                    25:87:e2:81:9c:3a:25:1e:f4:4a:c5:11:30:2b:17:
                    12:ea:97:5e:ce:de:f7:82:38:0b:78:97:a1:88:3b:
                    54:f1:7d:3e:27:23:13:1e:25:4c:58:7d:ce:bc:b1:
                    05:28:41:2a:dc:83:5a:09:e1:5b:5f:18:8e:5d:01:
                    6c:7d:7f:b9:70:1b:b0:42:58:ae:d4:11:81:e6:2c:
                    10:57:9b:c4:70:7e:fc:0c:0f
                Exponent: 65537 (0x10001)
    Signature Algorithm: md5WithRSAEncryption
        c0:25:f2:8f:20:bb:29:e3:e5:09:9a:2e:48:71:c9:e9:ab:7e:
        bf:c0:c5:27:86:25:ea:5e:69:0b:16:21:4c:8e:e5:30:42:a1:
        4e:2f:b3:80:dc:67:f3:9b:02:af:a1:59:bc:76:03:db:3e:35:
        30:6b:0d:63:dc:73:d3:7f:bf:dc:d9:a1:d2:87:93:57:8f:8b:
        78:de:3b:24:96:0f:ea:49:5f:d4:d7:69:57:65:33:31:3a:16:
        96:cc:ab:4f:8d:50:27:03:a4:12:59:e4:bb:80:55:e3:99:b3:
        bc:72:57:4a:f3:2a:52:44:56:9c:42:a5:c4:87:49:7b:cf:f3:
        86:41
-----BEGIN CERTIFICATE-----
MIICBTCCAW4CAQQwDQYJKoZIhvcNAQEEBQAwUjENMAsGA1UEChMER0FDRzEQMA4G
A1UEBxMHVmlydHVhbDERMA8GA1UECBMIVGVzdENlcnQxCzAJBgNVBAYTAkRFMQ8w
DQYDVQQDEwZUZXN0Q0EwHhcNMDYxMTI5MTQzNDA1WhcNMTYxMTI2MTQzNDA1WjBE
MQswCQYDVQQGEwJERTERMA8GA1UECBMIVGVzdENlcnQxDTALBgNVBAoTBEdBQ0cx
EzARBgNVBAMTClRlc3RTZXJ2ZXIwgZ8wDQYJKoZIhvcNAQEBBQADgY0AMIGJAoGB
ALGT+AQq0g3KjGu321r88owlDob1Td/RY42qezwiETzB0NxwsCR7ren2g6Q0JYfi
gZw6JR70SsURMCsXEuqXXs7e94I4C3iXoYg7VPF9PicjEx4lTFh9zryxBShBKtyD
WgnhW18Yjl0BbH1/uXAbsEJYrtQRgeYsEFebxHB+/AwPAgMBAAEwDQYJKoZIhvcN
AQEEBQADgYEAwCXyjyC7KePlCZouSHHJ6at+v8DFJ4Yl6l5pCxYhTI7lMEKhTi+z
gNxn85sCr6FZvHYD2z41MGsNY9xz03+/3Nmh0oeTV4+LeN47JJYP6klf1NdpV2Uz
MToWlsyrT41QJwOkElnku4BV45mzvHJXSvMqUkRWnEKlxIdJe8/zhkE=
-----END CERTIFICATE-----
