Certificate:
    Data:
        Version: 1 (0x0)
        Serial Number: 3 (0x3)
        Signature Algorithm: md5WithRSAEncryption
        Issuer: O=GACG, L=Virtual, ST=TestCert, C=DE, CN=TestCA
        Validity
            Not Before: Nov 29 14:29:54 2006 GMT
            Not After : Nov 26 14:29:54 2016 GMT
        Subject: C=DE, ST=TestCert, O=GACG, CN=Unauthorized
        Subject Public Key Info:
            Public Key Algorithm: rsaEncryption
            RSA Public Key: (1024 bit)
                Modulus (1024 bit):
                    00:bd:85:c4:ac:c2:10:9b:50:b5:05:bd:7d:a1:99:
                    17:ba:0e:e8:b2:4a:1a:e1:eb:3f:3c:6a:c2:78:22:
                    d8:af:c9:36:df:66:35:fa:5d:ed:23:5d:e1:61:f9:
                    35:b0:b3:6d:38:e6:af:be:bc:2c:18:64:71:d0:95:
                    88:f1:a7:70:fb:67:c6:e3:fa:7c:fe:3c:69:21:a5:
                    5d:2f:bc:2c:30:eb:62:70:de:44:41:fd:66:ec:5a:
                    7f:3c:ff:e3:e5:76:46:aa:e3:1b:6e:63:17:40:7a:
                    8b:70:c0:54:01:1d:81:a1:3d:a5:54:99:e4:04:55:
                    63:e5:a9:9a:5f:a6:54:4f:47
                Exponent: 65537 (0x10001)
    Signature Algorithm: md5WithRSAEncryption
        a8:55:bd:8c:1e:ea:fd:96:87:fe:b3:68:f3:b2:48:9f:5b:74:
        9b:ca:34:c6:53:70:76:30:27:82:a4:51:99:a0:2f:78:0c:7f:
        d9:15:7e:a9:a3:a4:a7:4a:2f:14:5e:c8:1d:52:18:4a:c9:8b:
        49:3b:5f:bd:ec:ae:e4:32:95:99:84:63:73:fe:c8:ef:25:be:
        56:a3:e4:f6:03:44:bf:29:ef:2c:82:85:d7:7d:f1:1d:11:66:
        7a:35:fd:ac:22:6d:93:28:12:50:67:1d:85:28:22:00:fe:3a:
        6c:c1:2e:eb:2d:d9:86:74:d8:54:cb:4a:f6:d4:5c:58:21:db:
        f6:c6
-----BEGIN CERTIFICATE-----
MIICBzCCAXACAQMwDQYJKoZIhvcNAQEEBQAwUjENMAsGA1UEChMER0FDRzEQMA4G
A1UEBxMHVmlydHVhbDERMA8GA1UECBMIVGVzdENlcnQxCzAJBgNVBAYTAkRFMQ8w
DQYDVQQDEwZUZXN0Q0EwHhcNMDYxMTI5MTQyOTU0WhcNMTYxMTI2MTQyOTU0WjBG
MQswCQYDVQQGEwJERTERMA8GA1UECBMIVGVzdENlcnQxDTALBgNVBAoTBEdBQ0cx
FTATBgNVBAMTDFVuYXV0aG9yaXplZDCBnzANBgkqhkiG9w0BAQEFAAOBjQAwgYkC
gYEAvYXErMIQm1C1Bb19oZkXug7oskoa4es/PGrCeCLYr8k232Y1+l3tI13hYfk1
sLNtOOavvrwsGGRx0JWI8adw+2fG4/p8/jxpIaVdL7wsMOticN5EQf1m7Fp/PP/j
5XZGquMbbmMXQHqLcMBUAR2BoT2lVJnkBFVj5amaX6ZUT0cCAwEAATANBgkqhkiG
9w0BAQQFAAOBgQCoVb2MHur9lof+s2jzskifW3SbyjTGU3B2MCeCpFGZoC94DH/Z
FX6po6SnSi8UXsgdUhhKyYtJO1+97K7kMpWZhGNz/sjvJb5Wo+T2A0S/Ke8sgoXX
ffEdEWZ6Nf2sIm2TKBJQZx2FKCIA/jpswS7rLdmGdNhUy0r21FxYIdv2xg==
-----END CERTIFICATE-----
-----BEGIN RSA PRIVATE KEY-----
MIICXQIBAAKBgQC9hcSswhCbULUFvX2hmRe6DuiyShrh6z88asJ4ItivyTbfZjX6
Xe0jXeFh+TWws2045q++vCwYZHHQlYjxp3D7Z8bj+nz+PGkhpV0vvCww62Jw3kRB
/WbsWn88/+Pldkaq4xtuYxdAeotwwFQBHYGhPaVUmeQEVWPlqZpfplRPRwIDAQAB
AoGAEanR9rfvjEotVOegOdtm1rRlA5jcgInITv00OrYks91w+8ku5rKyU0WAp/zu
ABX47AC0CHbJNUzHPsVxCfStFtg5aGYF3VXotV78DO0VsW0uRlQObxoSL8sexhQL
gqvEV12anyAYjzIGqKeJPwTY3NLTyj7vw6Wb0gZ9/OFueGECQQDfL5gbL+AxfDKB
nfFlLc2V3/DUTQ7G7iZIPsJPuxyZ5vEcPEzcxGZUG2tURFzVWglb0zf+7FsjEL/g
Z1i6Du07AkEA2WMhpgm/1Vwdl12CBb3n0ux5khCM4kIKwKq37fSILbmfNO8G7BmL
v+0kg0je3wswyn3oL0ClyTswayXPHsK1ZQJAFjeqsKona0Wt0XFjomrY2F6ensO9
ANicPvzgYweBZWC0B9eI30E93omMOatEgoif/eAc5ueoeukj8LbZAkySGQJBAI9p
QZKLDf4QpgjsjFGDZgOVM+Jzfq3pSbSvK2YVEx2vPmOqaNOrSrGUHalqknVsqYR8
qYc6y+REYv3c1JYDd60CQQDAHtb4QaDDqqtb0ekxTMprWw4X4sBkhAqp+AVRTDEc
Z3RxaZCVUAFD9eujL6u41ruoLHvAknqPaR2CYxzOOc3x
-----END RSA PRIVATE KEY-----
