(dp1
Vh
(dp2
S'pars'
p3
V1.8 2.2
p4
sS'dist'
p5
VNormal
p6
ssVPresa
p7
(dp8
g3
V0 4
p9
sg5
VNormal
p10
ssVr
(dp11
g3
V2.8 3.2
p12
sg5
VNormal
p13
ssS'samples'
p14
I1000
sVPred
p15
(dp16
g3
V0 3
p17
sg5
VNormal
p18
ssS'alpha'
p19
F0.5
s.